target datalayout = "e-m:e-p270:32:32-p271:32:32-p272:64:64-i64:64-i128:128-f80:128-n8:16:32:64-S128"
target triple = "x86_64-pc-linux-gnu"

%struct._dcerpc_auth_context = type { ptr, i64, i8, i8, i32, i32, i8 }

; Function Attrs: nounwind null_pointer_is_valid sspstrong uwtable
define internal i32 @dcerpc_auth_context_hash(ptr noundef %0) #10 {
  %2 = alloca ptr, align 8
  %3 = alloca ptr, align 8
  %4 = alloca i32, align 4
  store ptr %0, ptr %2, align 8
  call void @llvm.lifetime.start.p0(i64 8, ptr %3) #19
  %5 = load ptr, ptr %2, align 8
  store ptr %5, ptr %3, align 8
  call void @llvm.lifetime.start.p0(i64 4, ptr %4) #19
  %6 = load ptr, ptr %3, align 8
  %7 = getelementptr inbounds nuw %struct._dcerpc_auth_context, ptr %6, i32 0, i32 0
  %8 = load ptr, ptr %7, align 8
  %9 = ptrtoint ptr %8 to i64
  %10 = trunc i64 %9 to i32
  store i32 %10, ptr %4, align 4
  %11 = load ptr, ptr %3, align 8
  %12 = getelementptr inbounds nuw %struct._dcerpc_auth_context, ptr %11, i32 0, i32 4
  %13 = load i32, ptr %12, align 4
  %14 = load i32, ptr %4, align 4
  %15 = add i32 %14, %13
  store i32 %15, ptr %4, align 4
  %16 = load ptr, ptr %3, align 8
  %17 = getelementptr inbounds nuw %struct._dcerpc_auth_context, ptr %16, i32 0, i32 1
  %18 = load i64, ptr %17, align 8
  %19 = trunc i64 %18 to i32
  %20 = load i32, ptr %4, align 4
  %21 = add i32 %20, %19
  store i32 %21, ptr %4, align 4
  %22 = load ptr, ptr %3, align 8
  %23 = getelementptr inbounds nuw %struct._dcerpc_auth_context, ptr %22, i32 0, i32 1
  %24 = load i64, ptr %23, align 8
  %25 = shl i64 %24, 4
  %26 = trunc i64 %25 to i32
  %27 = load i32, ptr %4, align 4
  %28 = add i32 %27, %26
  store i32 %28, ptr %4, align 4
  %29 = load i32, ptr %4, align 4
  call void @llvm.lifetime.end.p0(i64 4, ptr %4) #19
  call void @llvm.lifetime.end.p0(i64 8, ptr %3) #19
  ret i32 %29
}