; Function Attrs: mustprogress nofree norecurse nosync nounwind null_pointer_is_valid sspstrong willreturn memory(argmem: read) uwtable
define internal i32 @dcerpc_auth_context_hash(ptr noundef readonly captures(none) %0) #7 {
  %2 = load ptr, ptr %0, align 8
  %3 = ptrtoint ptr %2 to i64
  %4 = trunc i64 %3 to i32
  %5 = getelementptr inbounds nuw i8, ptr %0, i64 20
  %6 = load i32, ptr %5, align 4
  %7 = add i32 %6, %4
  %8 = getelementptr inbounds nuw i8, ptr %0, i64 8
  %9 = load i64, ptr %8, align 8
  %10 = trunc i64 %9 to i32
  %11 = add i32 %7, %10
  %12 = shl i32 %10, 4
  %13 = add i32 %11, %12
  ret i32 %13
}